target datalayout = "e-m:e-p270:32:32-p271:32:32-p272:64:64-i64:64-i128:128-f80:128-n8:16:32:64-S128"
target triple = "x86_64-unknown-linux-gnu"

%"class.sat::literal" = type { i32 }
%"class.sat::constraint_base" = type { ptr, [0 x i32] }

; Function Attrs: mustprogress nounwind uwtable
define linkonce_odr hidden noundef ptr @_ZN3sat15constraint_base10from_indexEm(i64 noundef %s) #4 comdat align 2 {
entry:
  %s.addr = alloca i64, align 8
  store i64 %s, ptr %s.addr, align 8
  %0 = load i64, ptr %s.addr, align 8
  %1 = inttoptr i64 %0 to ptr
  ret ptr %1
}

; Function Attrs: mustprogress uwtable
define linkonce_odr hidden noundef ptr @_ZN3sat15constraint_base12to_extensionEm(i64 noundef %s) #5 comdat align 2 {
entry:
  %s.addr = alloca i64, align 8
  store i64 %s, ptr %s.addr, align 8
  %0 = load i64, ptr %s.addr, align 8
  %call = call noundef ptr @_ZN3sat15constraint_base10from_indexEm(i64 noundef %0)
  %m_ex = getelementptr inbounds %"class.sat::constraint_base", ptr %call, i32 0, i32 0
  %1 = load ptr, ptr %m_ex, align 8
  ret ptr %1
}

; Function Attrs: mustprogress uwtable
define hidden noundef zeroext i1 @_ZN3euf6solver10is_blockedEN3sat7literalEm(ptr noundef nonnull align 8 dereferenceable(9136) %this, i32 %l.coerce, i64 noundef %idx) unnamed_addr #5 align 2 {
entry:
  %retval = alloca i1, align 1
  %l = alloca %"class.sat::literal", align 4
  %this.addr = alloca ptr, align 8
  %idx.addr = alloca i64, align 8
  %ext = alloca ptr, align 8
  %agg.tmp = alloca %"class.sat::literal", align 4
  %coerce.dive = getelementptr inbounds %"class.sat::literal", ptr %l, i32 0, i32 0
  store i32 %l.coerce, ptr %coerce.dive, align 4
  store ptr %this, ptr %this.addr, align 8
  store i64 %idx, ptr %idx.addr, align 8
  %this1 = load ptr, ptr %this.addr, align 8
  %0 = load i64, ptr %idx.addr, align 8
  %call = call noundef ptr @_ZN3sat15constraint_base12to_extensionEm(i64 noundef %0)
  store ptr %call, ptr %ext, align 8
  %1 = load ptr, ptr %ext, align 8
  %cmp = icmp ne ptr %1, %this1
  br i1 %cmp, label %if.then, label %if.end

if.then:                                          ; preds = %entry
  %2 = load ptr, ptr %ext, align 8
  call void @llvm.memcpy.p0.p0.i64(ptr align 4 %agg.tmp, ptr align 4 %l, i64 4, i1 false)
  %3 = load i64, ptr %idx.addr, align 8
  %coerce.dive2 = getelementptr inbounds %"class.sat::literal", ptr %agg.tmp, i32 0, i32 0
  %4 = load i32, ptr %coerce.dive2, align 4
  %vtable = load ptr, ptr %2, align 8
  %vfn = getelementptr inbounds ptr, ptr %vtable, i64 38
  %5 = load ptr, ptr %vfn, align 8
  %call3 = call noundef zeroext i1 %5(ptr noundef nonnull align 8 dereferenceable(32) %2, i32 %4, i64 noundef %3)
  store i1 %call3, ptr %retval, align 1
  br label %return

if.end:                                           ; preds = %entry
  store i1 false, ptr %retval, align 1
  br label %return

return:                                           ; preds = %if.end, %if.then
  %6 = load i1, ptr %retval, align 1
  ret i1 %6
}