; Function Attrs: mustprogress uwtable
define hidden noundef zeroext i1 @_ZN3euf6solver10is_blockedEN3sat7literalEm(ptr noundef nonnull readnone align 8 dereferenceable(9136) %this, i32 %l.coerce, i64 noundef %idx) unnamed_addr #3 align 2 {
entry:
  %0 = inttoptr i64 %idx to ptr
  %1 = load ptr, ptr %0, align 8
  %cmp.not = icmp eq ptr %1, %this
  br i1 %cmp.not, label %return, label %if.then

if.then:                                          ; preds = %entry
  %vtable = load ptr, ptr %1, align 8
  %vfn = getelementptr inbounds i8, ptr %vtable, i64 304
  %2 = load ptr, ptr %vfn, align 8
  %call3 = tail call noundef zeroext i1 %2(ptr noundef nonnull align 8 dereferenceable(32) %1, i32 %l.coerce, i64 noundef %idx)
  br label %return

return:                                           ; preds = %entry, %if.then
  %retval.0 = phi i1 [ %call3, %if.then ], [ false, %entry ]
  ret i1 %retval.0
}